; Function Attrs: mustprogress nounwind uwtable
define internal void @_ZN12_GLOBAL__N_114COFFMasmParserD0Ev(ptr noundef nonnull align 8 dereferenceable(88) %0) unnamed_addr #0 align 2 {
  store ptr getelementptr inbounds inrange(-16, 24) (i8, ptr @_ZTVN12_GLOBAL__N_114COFFMasmParserE, i64 16), ptr %0, align 8
  %2 = getelementptr inbounds nuw i8, ptr %0, i64 56
  %3 = tail call noundef i64 @_ZNK4llvm15SmallVectorBaseImE4sizeEv(ptr noundef nonnull align 8 dereferenceable(24) %2) #16
  %4 = load ptr, ptr %2, align 8
  %5 = getelementptr inbounds i8, ptr %0, i64 80
  %6 = icmp eq ptr %4, %5
  br i1 %6, label %_ZN4llvm11SmallVectorIbLj1EED2Ev.exit.i, label %7

7:                                                ; preds = %1
  tail call void @free(ptr noundef %4) #16
  br label %_ZN4llvm11SmallVectorIbLj1EED2Ev.exit.i

_ZN4llvm11SmallVectorIbLj1EED2Ev.exit.i:          ; preds = %7, %1
  %8 = getelementptr inbounds nuw i8, ptr %0, i64 24
  %9 = tail call noundef i64 @_ZNK4llvm15SmallVectorBaseIjE4sizeEv(ptr noundef nonnull align 8 dereferenceable(16) %8) #16
  %10 = load ptr, ptr %8, align 8
  %11 = getelementptr inbounds i8, ptr %0, i64 40
  %12 = icmp eq ptr %10, %11
  br i1 %12, label %_ZN12_GLOBAL__N_114COFFMasmParserD2Ev.exit, label %13

13:                                               ; preds = %_ZN4llvm11SmallVectorIbLj1EED2Ev.exit.i
  tail call void @free(ptr noundef %10) #16
  br label %_ZN12_GLOBAL__N_114COFFMasmParserD2Ev.exit

_ZN12_GLOBAL__N_114COFFMasmParserD2Ev.exit:       ; preds = %_ZN4llvm11SmallVectorIbLj1EED2Ev.exit.i, %13
  tail call void @_ZN4llvm20MCAsmParserExtensionD2Ev(ptr noundef nonnull align 8 dereferenceable(17) %0) #16
  tail call void @_ZdlPvm(ptr noundef nonnull %0, i64 noundef 88) #17
  ret void
}